; Function Attrs: nounwind uwtable
define internal i32 @shared_record_table_hash(ptr noundef readonly captures(none) %0, i64 %1, ptr noundef %2) #0 {
  %4 = getelementptr inbounds nuw i8, ptr %0, i64 8
  %5 = load i8, ptr %4, align 8, !range !4, !noundef !5
  %6 = trunc nuw i8 %5 to i1
  br i1 %6, label %7, label %10

7:                                                ; preds = %3
  %8 = load i64, ptr %0, align 8
  %9 = tail call ptr @dsa_get_address(ptr noundef %2, i64 noundef %8) #16
  br label %12

10:                                               ; preds = %3
  %11 = load ptr, ptr %0, align 8
  br label %12

12:                                               ; preds = %10, %7
  %.0 = phi ptr [ %9, %7 ], [ %11, %10 ]
  %13 = tail call i32 @hashRowType(ptr noundef %.0) #16
  ret i32 %13
}